; Function Attrs: mustprogress nofree norecurse nosync nounwind willreturn memory(read, argmem: readwrite, inaccessiblemem: none) uwtable
define hidden noundef ptr @_ZN22PredicateEntryIterator10next_entryEv(ptr nocapture noundef nonnull align 8 dereferenceable(8) %0) local_unnamed_addr #3 align 2 {
  %2 = load ptr, ptr %0, align 8
  %3 = getelementptr inbounds i8, ptr %2, i64 8
  %4 = load ptr, ptr %3, align 8
  %5 = load ptr, ptr %4, align 8
  %6 = getelementptr inbounds i8, ptr %5, i64 8
  %7 = load ptr, ptr %6, align 8
  %8 = load ptr, ptr %7, align 8
  store ptr %8, ptr %0, align 8
  ret ptr %8
}